<?xml version="1.0"?>
<pdml version="0" creator="wireshark/0.99.5">
<packet>
  <proto name="geninfo" pos="0" showname="General information" size="1422">
    <field name="num" pos="0" show="1" showname="Number" value="1" size="1422"/>
    <field name="len" pos="0" show="1422" showname="Packet Length" value="58e" size="1422"/>
    <field name="caplen" pos="0" show="1422" showname="Captured Length" value="58e" size="1422"/>
    <field name="timestamp" pos="0" show="Jun  6, 2007 22:51:29.924053000" showname="Captured Time" value="1181184689.924053000" size="1422"/>
  </proto>
  <proto name="frame" showname="Frame 1 (1422 bytes on wire, 1422 bytes captured)" size="1422" pos="0">
    <field name="frame.time" showname="Arrival Time: Jun  6, 2007 22:51:29.924053000" size="0" pos="0" show="Jun  6, 2007 22:51:29.924053000"/>
    <field name="frame.time_delta" showname="Time delta from previous packet: 0.000000000 seconds" size="0" pos="0" show="0.000000000"/>
    <field name="frame.time_relative" showname="Time since reference or first frame: 0.000000000 seconds" size="0" pos="0" show="0.000000000"/>
    <field name="frame.number" showname="Frame Number: 1" size="0" pos="0" show="1"/>
    <field name="frame.pkt_len" showname="Packet Length: 1422 bytes" size="0" pos="0" show="1422"/>
    <field name="frame.cap_len" showname="Capture Length: 1422 bytes" size="0" pos="0" show="1422"/>
    <field name="frame.marked" showname="Frame is marked: False" size="0" pos="0" show="0"/>
    <field name="frame.protocols" showname="Protocols in frame: eth:ip:tcp:http" size="0" pos="0" show="eth:ip:tcp:http"/>
    <field name="frame.coloring_rule.name" showname="Coloring Rule Name: Checksum Errors" size="0" pos="0" show="Checksum Errors"/>
    <field name="frame.coloring_rule.string" showname="Coloring Rule String: cdp.checksum_bad==1 || edp.checksum_bad==1 || ip.checksum_bad==1 || tcp.checksum_bad==1 || udp.checksum_bad==1" size="0" pos="0" show="cdp.checksum_bad==1 || edp.checksum_bad==1 || ip.checksum_bad==1 || tcp.checksum_bad==1 || udp.checksum_bad==1"/>
  </proto>
  <proto name="eth" showname="Ethernet II, Src: UniwillC_54:16:d2 (00:03:0d:54:16:d2), Dst: 3com_ac:5e:2e (00:60:08:ac:5e:2e)" size="14" pos="0">
    <field name="eth.dst" showname="Destination: 3com_ac:5e:2e (00:60:08:ac:5e:2e)" size="6" pos="0" show="00:60:08:ac:5e:2e" value="006008ac5e2e">
      <field name="eth.addr" showname="Address: 3com_ac:5e:2e (00:60:08:ac:5e:2e)" size="6" pos="0" show="00:60:08:ac:5e:2e" value="006008ac5e2e"/>
      <field name="eth.ig" showname=".... ...0 .... .... .... .... = IG bit: Individual address (unicast)" size="3" pos="0" show="0" value="0" unmaskedvalue="006008"/>
      <field name="eth.lg" showname=".... ..0. .... .... .... .... = LG bit: Globally unique address (factory default)" size="3" pos="0" show="0" value="0" unmaskedvalue="006008"/>
    </field>
    <field name="eth.src" showname="Source: UniwillC_54:16:d2 (00:03:0d:54:16:d2)" size="6" pos="6" show="00:03:0d:54:16:d2" value="00030d5416d2">
      <field name="eth.addr" showname="Address: UniwillC_54:16:d2 (00:03:0d:54:16:d2)" size="6" pos="6" show="00:03:0d:54:16:d2" value="00030d5416d2"/>
      <field name="eth.ig" showname=".... ...0 .... .... .... .... = IG bit: Individual address (unicast)" size="3" pos="6" show="0" value="0" unmaskedvalue="00030d"/>
      <field name="eth.lg" showname=".... ..0. .... .... .... .... = LG bit: Globally unique address (factory default)" size="3" pos="6" show="0" value="0" unmaskedvalue="00030d"/>
    </field>
    <field name="eth.type" showname="Type: IP (0x0800)" size="2" pos="12" show="0x0800" value="0800"/>
  </proto>
  <proto name="ip" showname="Internet Protocol, Src: 192.168.1.127 (192.168.1.127), Dst: 206.157.193.68 (206.157.193.68)" size="20" pos="14">
    <field name="ip.version" showname="Version: 4" size="1" pos="14" show="4" value="45"/>
    <field name="ip.hdr_len" showname="Header length: 20 bytes" size="1" pos="14" show="20" value="45"/>
    <field name="ip.dsfield" showname="Differentiated Services Field: 0x00 (DSCP 0x00: Default; ECN: 0x00)" size="1" pos="15" show="0" value="00">
      <field name="ip.dsfield.dscp" showname="0000 00.. = Differentiated Services Codepoint: Default (0x00)" size="1" pos="15" show="0x00" value="0" unmaskedvalue="00"/>
      <field name="ip.dsfield.ect" showname=".... ..0. = ECN-Capable Transport (ECT): 0" size="1" pos="15" show="0" value="0" unmaskedvalue="00"/>
      <field name="ip.dsfield.ce" showname=".... ...0 = ECN-CE: 0" size="1" pos="15" show="0" value="0" unmaskedvalue="00"/>
    </field>
    <field name="ip.len" showname="Total Length: 1408" size="2" pos="16" show="1408" value="0580"/>
    <field name="ip.id" showname="Identification: 0x21a7 (8615)" size="2" pos="18" show="0x21a7" value="21a7"/>
    <field name="ip.flags" showname="Flags: 0x04 (Don&apos;t Fragment)" size="1" pos="20" show="0x04" value="40">
      <field name="ip.flags.rb" showname="0... = Reserved bit: Not set" size="1" pos="20" show="0" value="0" unmaskedvalue="40"/>
      <field name="ip.flags.df" showname=".1.. = Don&apos;t fragment: Set" size="1" pos="20" show="1" value="1" unmaskedvalue="40"/>
      <field name="ip.flags.mf" showname="..0. = More fragments: Not set" size="1" pos="20" show="0" value="0" unmaskedvalue="40"/>
    </field>
    <field name="ip.frag_offset" showname="Fragment offset: 0" size="2" pos="20" show="0" value="4000"/>
    <field name="ip.ttl" showname="Time to live: 128" size="1" pos="22" show="128" value="80"/>
    <field name="ip.proto" showname="Protocol: TCP (0x06)" size="1" pos="23" show="0x06" value="06"/>
    <field name="ip.checksum" showname="Header checksum: 0x81c7 [correct]" size="2" pos="24" show="0x81c7" value="81c7">
      <field name="ip.checksum_good" showname="Good: True" size="2" pos="24" show="1" value="81c7"/>
      <field name="ip.checksum_bad" showname="Bad : False" size="2" pos="24" show="0" value="81c7"/>
    </field>
    <field name="ip.src" showname="Source: 192.168.1.127 (192.168.1.127)" size="4" pos="26" show="192.168.1.127" value="c0a8017f"/>
    <field name="ip.addr" showname="Source or Destination Address: 192.168.1.127 (192.168.1.127)" hide="yes" size="4" pos="26" show="192.168.1.127" value="c0a8017f"/>
    <field name="ip.src_host" showname="Source Host: 192.168.1.127" hide="yes" size="4" pos="26" show="192.168.1.127" value="c0a8017f"/>
    <field name="ip.host" showname="Source or Destination Host: 192.168.1.127" hide="yes" size="4" pos="26" show="192.168.1.127" value="c0a8017f"/>
    <field name="ip.dst" showname="Destination: 206.157.193.68 (206.157.193.68)" size="4" pos="30" show="206.157.193.68" value="ce9dc144"/>
    <field name="ip.addr" showname="Source or Destination Address: 206.157.193.68 (206.157.193.68)" hide="yes" size="4" pos="30" show="206.157.193.68" value="ce9dc144"/>
    <field name="ip.dst_host" showname="Destination Host: 206.157.193.68" hide="yes" size="4" pos="30" show="206.157.193.68" value="ce9dc144"/>
    <field name="ip.host" showname="Source or Destination Host: 206.157.193.68" hide="yes" size="4" pos="30" show="206.157.193.68" value="ce9dc144"/>
  </proto>
  <proto name="tcp" showname="Transmission Control Protocol, Src Port: 2240 (2240), Dst Port: http (80), Seq: 0, Ack: 0, Len: 1368" size="20" pos="34">
    <field name="tcp.srcport" showname="Source port: 2240 (2240)" size="2" pos="34" show="2240" value="08c0"/>
    <field name="tcp.dstport" showname="Destination port: http (80)" size="2" pos="36" show="80" value="0050"/>
    <field name="tcp.port" showname="Source or Destination Port: 2240" hide="yes" size="2" pos="34" show="2240" value="08c0"/>
    <field name="tcp.port" showname="Source or Destination Port: 80" hide="yes" size="2" pos="36" show="80" value="0050"/>
    <field name="tcp.len" showname="TCP Segment Len: 1368" hide="yes" size="4" pos="34" show="1368" value="08c00050"/>
    <field name="tcp.seq" showname="Sequence number: 0    (relative sequence number)" size="4" pos="38" show="0" value="74f814fa"/>
    <field name="tcp.nxtseq" showname="Next sequence number: 1368    (relative sequence number)" size="0" pos="34" show="1368"/>
    <field name="tcp.ack" showname="Acknowledgement number: 0    (relative ack number)" size="4" pos="42" show="0" value="02799e07"/>
    <field name="tcp.hdr_len" showname="Header length: 20 bytes" size="1" pos="46" show="20" value="50"/>
    <field name="tcp.flags" showname="Flags: 0x18 (PSH, ACK)" size="1" pos="47" show="0x18" value="18">
      <field name="tcp.flags.cwr" showname="0... .... = Congestion Window Reduced (CWR): Not set" size="1" pos="47" show="0" value="0" unmaskedvalue="18"/>
      <field name="tcp.flags.ecn" showname=".0.. .... = ECN-Echo: Not set" size="1" pos="47" show="0" value="0" unmaskedvalue="18"/>
      <field name="tcp.flags.urg" showname="..0. .... = Urgent: Not set" size="1" pos="47" show="0" value="0" unmaskedvalue="18"/>
      <field name="tcp.flags.ack" showname="...1 .... = Acknowledgment: Set" size="1" pos="47" show="1" value="1" unmaskedvalue="18"/>
      <field name="tcp.flags.push" showname=".... 1... = Push: Set" size="1" pos="47" show="1" value="1" unmaskedvalue="18"/>
      <field name="tcp.flags.reset" showname=".... .0.. = Reset: Not set" size="1" pos="47" show="0" value="0" unmaskedvalue="18"/>
      <field name="tcp.flags.syn" showname=".... ..0. = Syn: Not set" size="1" pos="47" show="0" value="0" unmaskedvalue="18"/>
      <field name="tcp.flags.fin" showname=".... ...0 = Fin: Not set" size="1" pos="47" show="0" value="0" unmaskedvalue="18"/>
    </field>
    <field name="tcp.window_size" showname="Window size: 65535" size="2" pos="48" show="65535" value="ffff"/>
    <field name="tcp.checksum" showname="Checksum: 0x577c [incorrect, should be 0x5b60 (maybe caused by &quot;TCP checksum offload&quot;?)]" size="2" pos="50" show="0x577c" value="577c">
      <field name="tcp.checksum_good" showname="Good Checksum: False" size="2" pos="50" show="0" value="577c"/>
      <field name="tcp.checksum_bad" showname="Bad Checksum: True" size="2" pos="50" show="1" value="577c"/>
    </field>
  </proto>
  <proto name="http" showname="Hypertext Transfer Protocol" size="1368" pos="54">
    <field name="" show="GET /public/page/0_0018_Refresh.html HTTP/1.1\r\n" size="47" pos="54" value="474554202f7075626c69632f706167652f305f303031385f526566726573682e68746d6c20485454502f312e310d0a">
      <field name="http.request.method" showname="Request Method: GET" size="3" pos="54" show="GET" value="474554"/>
      <field name="http.request.uri" showname="Request URI: /public/page/0_0018_Refresh.html" size="32" pos="58" show="/public/page/0_0018_Refresh.html" value="2f7075626c69632f706167652f305f303031385f526566726573682e68746d6c"/>
      <field name="http.request.version" showname="Request Version: HTTP/1.1" size="8" pos="91" show="HTTP/1.1" value="485454502f312e31"/>
    </field>
    <field name="http.host" showname="Host: online.wsj.com\r\n" size="22" pos="101" show="online.wsj.com" value="486f73743a206f6e6c696e652e77736a2e636f6d0d0a"/>
    <field name="http.user_agent" showname="User-Agent: Mozilla/5.0 (Windows; U; Windows NT 5.1; en-US; rv:1.8.1.3) Gecko/20070309 Firefox/2.0.0.3\r\n" size="104" pos="123" show="Mozilla/5.0 (Windows; U; Windows NT 5.1; en-US; rv:1.8.1.3) Gecko/20070309 Firefox/2.0.0.3" value="557365722d4167656e743a204d6f7a696c6c612f352e30202857696e646f77733b20553b2057696e646f7773204e5420352e313b20656e2d55533b2072763a312e382e312e3329204765636b6f2f32303037303330392046697265666f782f322e302e302e330d0a"/>
    <field name="http.accept" showname="Accept: text/xml,application/xml,application/xhtml+xml,text/html;q=0.9,text/plain;q=0.8,image/png,*/*;q=0.5\r\n" size="109" pos="227" show="text/xml,application/xml,application/xhtml+xml,text/html;q=0.9,text/plain;q=0.8,image/png,*/*;q=0.5" value="4163636570743a20746578742f786d6c2c6170706c69636174696f6e2f786d6c2c6170706c69636174696f6e2f7868746d6c2b786d6c2c746578742f68746d6c3b713d302e392c746578742f706c61696e3b713d302e382c696d6167652f706e672c2a2f2a3b713d302e350d0a"/>
    <field name="http.accept_language" showname="Accept-Language: en-us,en;q=0.5\r\n" size="33" pos="336" show="en-us,en;q=0.5" value="4163636570742d4c616e67756167653a20656e2d75732c656e3b713d302e350d0a"/>
    <field name="http.accept_encoding" showname="Accept-Encoding: gzip,deflate\r\n" size="31" pos="369" show="gzip,deflate" value="4163636570742d456e636f64696e673a20677a69702c6465666c6174650d0a"/>
    <field name="" show="Accept-Charset: ISO-8859-1,utf-8;q=0.7,*;q=0.7\r\n" size="48" pos="400" value="4163636570742d436861727365743a2049534f2d383835392d312c7574662d383b713d302e372c2a3b713d302e370d0a"/>
    <field name="" show="Keep-Alive: 300\r\n" size="17" pos="448" value="4b6565702d416c6976653a203330300d0a"/>
    <field name="http.connection" showname="Connection: close\r\n" size="19" pos="465" show="close" value="436f6e6e656374696f6e3a20636c6f73650d0a"/>
    <field name="" show="If-Modified-Since: Thu, 07 Jun 2007 02:48:07 GMT\r\n" size="50" pos="484" value="49662d4d6f6469666965642d53696e63653a205468752c203037204a756e20323030372030323a34383a303720474d540d0a"/>
    <field name="http.referer" showname="Referer: http://online.wsj.com/home/us?refresh=on\r\n" size="51" pos="534" show="http://online.wsj.com/home/us?refresh=on" value="526566657265723a20687474703a2f2f6f6e6c696e652e77736a2e636f6d2f686f6d652f75733f726566726573683d6f6e0d0a"/>
    <field name="http.cookie" showname="Cookie: UBID=WedJun6203119EDT200701348968833; spotlightSet=true; WSJIE_LOGIN=AQSISOYTETcnl5wYgQIlHB9IDwUbjun0xDSrzzPL5%2FtbMQJoNyzdrgQupTUUJpwEaky2c%2BhMbK; djcs_user=VjE6YWRhbW5lbHNvbg%3D%3D; djcs_demo=VjE6Ynk9MTk4MDtjcz0xO2c9TTtpPTg7anJm" size="835" pos="585" show="UBID=WedJun6203119EDT200701348968833; spotlightSet=true; WSJIE_LOGIN=AQSISOYTETcnl5wYgQIlHB9IDwUbjun0xDSrzzPL5%2FtbMQJoNyzdrgQupTUUJpwEaky2c%2BhMbK; djcs_user=VjE6YWRhbW5lbHNvbg%3D%3D; djcs_demo=VjE6Ynk9MTk4MDtjcz0xO2c9TTtpPTg7anJmPTE7c3Q9MjtwPTE5; user_type=subscribed; rsessions=AQSISOYTIRcUE29pVP6V24Fp3OBUlBdBwTKxhCgdQJymgErlRDK%2F9lNIziZohwZSEX2sTJuyFObEFXQpLkA4%3DK; TR=097100097109110101108115111110; HOMEPAGE=/home/us; RCSEARCH=on%7C%7C; s_sq=%5B%5BB%5D%5D; s_cc=true; wsjproducts=QWaDGtlgfYhgwTmgZiyl2NZI9oUOtroEfnjinkgql3T1QVTMA%2F4iXdrE7SaEVccOlEMG6LsNVF4eQ7yPHXaWTT4ZHK%2FD7yx7F7asi5O%2FWGZ7adZ%2F8CZOZMP8%2B7TOROyWh31taXXOFB23M%3D; REMOTE_USER=adamnelson; betaprod=M1181177028%2FuXVjJSIammmbO12quVQXlZO2QGk4iwvVhzoaAS0qeMOdTjtkXE%2FQaO5zHgJ7SFEt5SERcyOnaE7i0Ew2SaN%2FgzCNIPNm0MqLShv8gyGlUyhHVYwdeHC7YUrS1Hn55AN2G" value="436f6f6b69653a20554249443d5765644a756e363230333131394544543230303730313334383936383833333b2073706f746c696768745365743d747275653b2057534a49455f4c4f47494e3d41515349534f59544554636e6c3577596751496c48423949447755626a756e30784453727a7a504c3525324674624d514a6f4e797a6472675175705455554a707745616b793263253242684d624b3b20646a63735f757365723d566a4536595752686257356c62484e7662672533442533443b20646a63735f64656d6f3d566a4536596e6b394d546b344d44746a637a30784f3263395454747050546737616e4a6d50544537633351394d6a7477505445353b20757365725f747970653d737562736372696265643b207273657373696f6e733d41515349534f595449526355453239705650365632344670334f42556c42644277544b7868436764514a796d6745726c52444b253246396c4e497a695a6f68775a5345583273544a7579464f6245465851704c6b41342533444b3b2054523d3039373130303039373130393131303130313130383131353131313131303b20484f4d45504147453d2f686f6d652f75733b2052435345415243483d6f6e2537432537433b20735f73713d253542253542422535442535443b20735f63633d747275653b2077736a70726f64756374733d5157614447746c676659686777546d675a69796c324e5a49396f554f74726f45666e6a696e6b67716c3354315156544d41253246346958647245375361455663634f6c454d47364c734e5646346551377950485861575454345a484b25324644377978374637617369354f25324657475a3761645a25324638435a4f5a4d503825324237544f524f7957683331746158584f464232334d2533443b2052454d4f54455f555345523d6164616d6e656c736f6e3b206265746170726f643d4d313138313137373032382532467558566a4a5349616d6d6d624f313271755651586c5a4f3251476b3469777656687a6f6141533071654d4f64546a746b584525324651614f357a48674a37534645743553455263794f6e614537693045773253614e253246677a434e49504e6d304d714c536876386779476c5579684856597764654843375955725331486e3535414e32470d0a"/>
    <field name="" show="\r\n" size="2" pos="1420" value="0d0a"/>
    <field name="http.request" showname="Request: True" hide="yes" size="0" pos="54" show="1"/>
  </proto>
</packet>

</pdml>
