<?xml version="1.0"?>
<pdml version="0" creator="wireshark/0.99.5">
<packet>
  <proto name="geninfo" pos="0" showname="General information" size="246">
    <field name="num" pos="0" show="2626" showname="Number" value="a42" size="246"/>
    <field name="len" pos="0" show="246" showname="Packet Length" value="f6" size="246"/>
    <field name="caplen" pos="0" show="246" showname="Captured Length" value="f6" size="246"/>
    <field name="timestamp" pos="0" show="Jul 15, 2007 21:27:14.196645000" showname="Captured Time" value="1184549234.196645000" size="246"/>
  </proto>
  <proto name="frame" showname="Frame 2626 (246 bytes on wire, 246 bytes captured)" size="246" pos="0">
    <field name="frame.time" showname="Arrival Time: Jul 15, 2007 21:27:14.196645000" size="0" pos="0" show="Jul 15, 2007 21:27:14.196645000"/>
    <field name="frame.time_delta" showname="Time delta from previous packet: 0.002645000 seconds" size="0" pos="0" show="0.002645000"/>
    <field name="frame.time_relative" showname="Time since reference or first frame: 16.063136000 seconds" size="0" pos="0" show="16.063136000"/>
    <field name="frame.number" showname="Frame Number: 2626" size="0" pos="0" show="2626"/>
    <field name="frame.pkt_len" showname="Packet Length: 246 bytes" size="0" pos="0" show="246"/>
    <field name="frame.cap_len" showname="Capture Length: 246 bytes" size="0" pos="0" show="246"/>
    <field name="frame.marked" showname="Frame is marked: False" size="0" pos="0" show="0"/>
    <field name="frame.protocols" showname="Protocols in frame: eth:ip:udp:dns" size="0" pos="0" show="eth:ip:udp:dns"/>
    <field name="frame.coloring_rule.name" showname="Coloring Rule Name: UDP" size="0" pos="0" show="UDP"/>
    <field name="frame.coloring_rule.string" showname="Coloring Rule String: udp" size="0" pos="0" show="udp"/>
  </proto>
  <proto name="eth" showname="Ethernet II, Src: 3com_ac:5e:2e (00:60:08:ac:5e:2e), Dst: UniwillC_54:16:d2 (00:03:0d:54:16:d2)" size="14" pos="0">
    <field name="eth.dst" showname="Destination: UniwillC_54:16:d2 (00:03:0d:54:16:d2)" size="6" pos="0" show="00:03:0d:54:16:d2" value="00030d5416d2">
      <field name="eth.addr" showname="Address: UniwillC_54:16:d2 (00:03:0d:54:16:d2)" size="6" pos="0" show="00:03:0d:54:16:d2" value="00030d5416d2"/>
      <field name="eth.ig" showname=".... ...0 .... .... .... .... = IG bit: Individual address (unicast)" size="3" pos="0" show="0" value="0" unmaskedvalue="00030d"/>
      <field name="eth.lg" showname=".... ..0. .... .... .... .... = LG bit: Globally unique address (factory default)" size="3" pos="0" show="0" value="0" unmaskedvalue="00030d"/>
    </field>
    <field name="eth.src" showname="Source: 3com_ac:5e:2e (00:60:08:ac:5e:2e)" size="6" pos="6" show="00:60:08:ac:5e:2e" value="006008ac5e2e">
      <field name="eth.addr" showname="Address: 3com_ac:5e:2e (00:60:08:ac:5e:2e)" size="6" pos="6" show="00:60:08:ac:5e:2e" value="006008ac5e2e"/>
      <field name="eth.ig" showname=".... ...0 .... .... .... .... = IG bit: Individual address (unicast)" size="3" pos="6" show="0" value="0" unmaskedvalue="006008"/>
      <field name="eth.lg" showname=".... ..0. .... .... .... .... = LG bit: Globally unique address (factory default)" size="3" pos="6" show="0" value="0" unmaskedvalue="006008"/>
    </field>
    <field name="eth.type" showname="Type: IP (0x0800)" size="2" pos="12" show="0x0800" value="0800"/>
  </proto>
  <proto name="ip" showname="Internet Protocol, Src: 192.168.1.1 (192.168.1.1), Dst: 192.168.1.127 (192.168.1.127)" size="20" pos="14">
    <field name="ip.version" showname="Version: 4" size="1" pos="14" show="4" value="45"/>
    <field name="ip.hdr_len" showname="Header length: 20 bytes" size="1" pos="14" show="20" value="45"/>
    <field name="ip.dsfield" showname="Differentiated Services Field: 0x00 (DSCP 0x00: Default; ECN: 0x00)" size="1" pos="15" show="0" value="00">
      <field name="ip.dsfield.dscp" showname="0000 00.. = Differentiated Services Codepoint: Default (0x00)" size="1" pos="15" show="0x00" value="0" unmaskedvalue="00"/>
      <field name="ip.dsfield.ect" showname=".... ..0. = ECN-Capable Transport (ECT): 0" size="1" pos="15" show="0" value="0" unmaskedvalue="00"/>
      <field name="ip.dsfield.ce" showname=".... ...0 = ECN-CE: 0" size="1" pos="15" show="0" value="0" unmaskedvalue="00"/>
    </field>
    <field name="ip.len" showname="Total Length: 232" size="2" pos="16" show="232" value="00e8"/>
    <field name="ip.id" showname="Identification: 0x81e3 (33251)" size="2" pos="18" show="0x81e3" value="81e3"/>
    <field name="ip.flags" showname="Flags: 0x00" size="1" pos="20" show="0x00" value="00">
      <field name="ip.flags.rb" showname="0... = Reserved bit: Not set" size="1" pos="20" show="0" value="0" unmaskedvalue="00"/>
      <field name="ip.flags.df" showname=".0.. = Don&apos;t fragment: Not set" size="1" pos="20" show="0" value="0" unmaskedvalue="00"/>
      <field name="ip.flags.mf" showname="..0. = More fragments: Not set" size="1" pos="20" show="0" value="0" unmaskedvalue="00"/>
    </field>
    <field name="ip.frag_offset" showname="Fragment offset: 0" size="2" pos="20" show="0" value="0000"/>
    <field name="ip.ttl" showname="Time to live: 64" size="1" pos="22" show="64" value="40"/>
    <field name="ip.proto" showname="Protocol: UDP (0x11)" size="1" pos="23" show="0x11" value="11"/>
    <field name="ip.checksum" showname="Header checksum: 0x7451 [correct]" size="2" pos="24" show="0x7451" value="7451">
      <field name="ip.checksum_good" showname="Good: True" size="2" pos="24" show="1" value="7451"/>
      <field name="ip.checksum_bad" showname="Bad : False" size="2" pos="24" show="0" value="7451"/>
    </field>
    <field name="ip.src" showname="Source: 192.168.1.1 (192.168.1.1)" size="4" pos="26" show="192.168.1.1" value="c0a80101"/>
    <field name="ip.addr" showname="Source or Destination Address: 192.168.1.1 (192.168.1.1)" hide="yes" size="4" pos="26" show="192.168.1.1" value="c0a80101"/>
    <field name="ip.src_host" showname="Source Host: 192.168.1.1" hide="yes" size="4" pos="26" show="192.168.1.1" value="c0a80101"/>
    <field name="ip.host" showname="Source or Destination Host: 192.168.1.1" hide="yes" size="4" pos="26" show="192.168.1.1" value="c0a80101"/>
    <field name="ip.dst" showname="Destination: 192.168.1.127 (192.168.1.127)" size="4" pos="30" show="192.168.1.127" value="c0a8017f"/>
    <field name="ip.addr" showname="Source or Destination Address: 192.168.1.127 (192.168.1.127)" hide="yes" size="4" pos="30" show="192.168.1.127" value="c0a8017f"/>
    <field name="ip.dst_host" showname="Destination Host: 192.168.1.127" hide="yes" size="4" pos="30" show="192.168.1.127" value="c0a8017f"/>
    <field name="ip.host" showname="Source or Destination Host: 192.168.1.127" hide="yes" size="4" pos="30" show="192.168.1.127" value="c0a8017f"/>
  </proto>
  <proto name="udp" showname="User Datagram Protocol, Src Port: domain (53), Dst Port: 3024 (3024)" size="8" pos="34">
    <field name="udp.srcport" showname="Source port: domain (53)" size="2" pos="34" show="53" value="0035"/>
    <field name="udp.dstport" showname="Destination port: 3024 (3024)" size="2" pos="36" show="3024" value="0bd0"/>
    <field name="udp.port" showname="Source or Destination Port: 53" hide="yes" size="2" pos="34" show="53" value="0035"/>
    <field name="udp.port" showname="Source or Destination Port: 3024" hide="yes" size="2" pos="36" show="3024" value="0bd0"/>
    <field name="udp.length" showname="Length: 212" size="2" pos="38" show="212" value="00d4"/>
    <field name="udp.checksum_coverage" showname="Checksum coverage: 212" hide="yes" size="0" pos="38" show="212"/>
    <field name="udp.checksum" showname="Checksum: 0x9151 [correct]" size="2" pos="40" show="0x9151" value="9151">
      <field name="udp.checksum_good" showname="Good Checksum: True" size="2" pos="40" show="1" value="9151"/>
      <field name="udp.checksum_bad" showname="Bad Checksum: False" size="2" pos="40" show="0" value="9151"/>
    </field>
  </proto>
  <proto name="dns" showname="Domain Name System (response)" size="204" pos="42">
    <field name="dns.response_to" showname="Request In: 2261" size="0" pos="42" show="2261"/>
    <field name="dns.time" showname="Time: 2.124094000 seconds" size="0" pos="42" show="2.124094000"/>
    <field name="dns.id" showname="Transaction ID: 0x9bb8" size="2" pos="42" show="0x9bb8" value="9bb8"/>
    <field name="dns.flags" showname="Flags: 0x8180 (Standard query response, No error)" size="2" pos="44" show="0x8180" value="8180">
      <field name="dns.flags.response" showname="1... .... .... .... = Response: Message is a response" size="2" pos="44" show="1" value="1" unmaskedvalue="8180"/>
      <field name="dns.flags.opcode" showname=".000 0... .... .... = Opcode: Standard query (0)" size="2" pos="44" show="0" value="0" unmaskedvalue="8180"/>
      <field name="dns.flags.authoritative" showname=".... .0.. .... .... = Authoritative: Server is not an authority for domain" size="2" pos="44" show="0" value="0" unmaskedvalue="8180"/>
      <field name="dns.flags.truncated" showname=".... ..0. .... .... = Truncated: Message is not truncated" size="2" pos="44" show="0" value="0" unmaskedvalue="8180"/>
      <field name="dns.flags.recdesired" showname=".... ...1 .... .... = Recursion desired: Do query recursively" size="2" pos="44" show="1" value="1" unmaskedvalue="8180"/>
      <field name="dns.flags.recavail" showname=".... .... 1... .... = Recursion available: Server can do recursive queries" size="2" pos="44" show="1" value="1" unmaskedvalue="8180"/>
      <field name="dns.flags.z" showname=".... .... .0.. .... = Z: reserved (0)" size="2" pos="44" show="0" value="0" unmaskedvalue="8180"/>
      <field name="dns.flags.authenticated" showname=".... .... ..0. .... = Answer authenticated: Answer/authority portion was not authenticated by the server" size="2" pos="44" show="0" value="0" unmaskedvalue="8180"/>
      <field name="dns.flags.rcode" showname=".... .... .... 0000 = Reply code: No error (0)" size="2" pos="44" show="0" value="0" unmaskedvalue="8180"/>
    </field>
    <field name="dns.count.queries" showname="Questions: 1" size="2" pos="46" show="1" value="0001"/>
    <field name="dns.count.answers" showname="Answer RRs: 3" size="2" pos="48" show="3" value="0003"/>
    <field name="dns.count.auth_rr" showname="Authority RRs: 7" size="2" pos="50" show="7" value="0007"/>
    <field name="dns.count.add_rr" showname="Additional RRs: 0" size="2" pos="52" show="0" value="0000"/>
    <field name="" show="Queries" size="21" pos="54" value="046d61696c06676f6f676c6503636f6d0000010001">
      <field name="" show="mail.google.com: type A, class IN" size="21" pos="54" value="046d61696c06676f6f676c6503636f6d0000010001">
        <field name="dns.qry.name" showname="Name: mail.google.com" size="17" pos="54" show="mail.google.com" value="046d61696c06676f6f676c6503636f6d00"/>
        <field name="dns.qry.type" showname="Type: A (Host address)" size="2" pos="71" show="0x0001" value="0001"/>
        <field name="dns.qry.class" showname="Class: IN (0x0001)" size="2" pos="73" show="0x0001" value="0001"/>
      </field>
    </field>
    <field name="" show="Answers" size="59" pos="75" value="c00c000500010007358b000f0a676f6f676c656d61696c016cc011c02d000100010000012c000440e9b913c02d000100010000012c000440e9b953">
      <field name="" show="mail.google.com: type CNAME, class IN, cname googlemail.l.google.com" size="27" pos="75" value="c00c000500010007358b000f0a676f6f676c656d61696c016cc011">
        <field name="dns.resp.name" showname="Name: mail.google.com" size="2" pos="75" show="mail.google.com" value="c00c"/>
        <field name="dns.resp.type" showname="Type: CNAME (Canonical name for an alias)" size="2" pos="77" show="0x0005" value="0005"/>
        <field name="dns.resp.class" showname="Class: IN (0x0001)" size="2" pos="79" show="0x0001" value="0001"/>
        <field name="dns.resp.ttl" showname="Time to live: 5 days, 11 hours, 14 minutes, 19 seconds" size="4" pos="81" show="472459" value="0007358b"/>
        <field name="dns.resp.len" showname="Data length: 15" size="2" pos="85" show="15" value="000f"/>
        <field name="" show="Primary name: googlemail.l.google.com" size="15" pos="87" value="0a676f6f676c656d61696c016cc011"/>
      </field>
      <field name="" show="googlemail.l.google.com: type A, class IN, addr 64.233.185.19" size="16" pos="102" value="c02d000100010000012c000440e9b913">
        <field name="dns.resp.name" showname="Name: googlemail.l.google.com" size="2" pos="102" show="googlemail.l.google.com" value="c02d"/>
        <field name="dns.resp.type" showname="Type: A (Host address)" size="2" pos="104" show="0x0001" value="0001"/>
        <field name="dns.resp.class" showname="Class: IN (0x0001)" size="2" pos="106" show="0x0001" value="0001"/>
        <field name="dns.resp.ttl" showname="Time to live: 5 minutes" size="4" pos="108" show="300" value="0000012c"/>
        <field name="dns.resp.len" showname="Data length: 4" size="2" pos="112" show="4" value="0004"/>
        <field name="" show="Addr: 64.233.185.19" size="4" pos="114" value="40e9b913"/>
      </field>
      <field name="" show="googlemail.l.google.com: type A, class IN, addr 64.233.185.83" size="16" pos="118" value="c02d000100010000012c000440e9b953">
        <field name="dns.resp.name" showname="Name: googlemail.l.google.com" size="2" pos="118" show="googlemail.l.google.com" value="c02d"/>
        <field name="dns.resp.type" showname="Type: A (Host address)" size="2" pos="120" show="0x0001" value="0001"/>
        <field name="dns.resp.class" showname="Class: IN (0x0001)" size="2" pos="122" show="0x0001" value="0001"/>
        <field name="dns.resp.ttl" showname="Time to live: 5 minutes" size="4" pos="124" show="300" value="0000012c"/>
        <field name="dns.resp.len" showname="Data length: 4" size="2" pos="128" show="4" value="0004"/>
        <field name="" show="Addr: 64.233.185.83" size="4" pos="130" value="40e9b953"/>
      </field>
    </field>
    <field name="" show="Authoritative nameservers" size="112" pos="134" value="c038000200010000a97c00040166c038c038000200010000a97c00040167c038c038000200010000a97c00040161c038c038000200010000a97c00040162c038c038000200010000a97c00040163c038c038000200010000a97c00040164c038c038000200010000a97c00040165c038">
      <field name="" show="l.google.com: type NS, class IN, ns f.l.google.com" size="16" pos="134" value="c038000200010000a97c00040166c038">
        <field name="dns.resp.name" showname="Name: l.google.com" size="2" pos="134" show="l.google.com" value="c038"/>
        <field name="dns.resp.type" showname="Type: NS (Authoritative name server)" size="2" pos="136" show="0x0002" value="0002"/>
        <field name="dns.resp.class" showname="Class: IN (0x0001)" size="2" pos="138" show="0x0001" value="0001"/>
        <field name="dns.resp.ttl" showname="Time to live: 12 hours, 3 minutes, 8 seconds" size="4" pos="140" show="43388" value="0000a97c"/>
        <field name="dns.resp.len" showname="Data length: 4" size="2" pos="144" show="4" value="0004"/>
        <field name="" show="Name server: f.l.google.com" size="4" pos="146" value="0166c038"/>
      </field>
      <field name="" show="l.google.com: type NS, class IN, ns g.l.google.com" size="16" pos="150" value="c038000200010000a97c00040167c038">
        <field name="dns.resp.name" showname="Name: l.google.com" size="2" pos="150" show="l.google.com" value="c038"/>
        <field name="dns.resp.type" showname="Type: NS (Authoritative name server)" size="2" pos="152" show="0x0002" value="0002"/>
        <field name="dns.resp.class" showname="Class: IN (0x0001)" size="2" pos="154" show="0x0001" value="0001"/>
        <field name="dns.resp.ttl" showname="Time to live: 12 hours, 3 minutes, 8 seconds" size="4" pos="156" show="43388" value="0000a97c"/>
        <field name="dns.resp.len" showname="Data length: 4" size="2" pos="160" show="4" value="0004"/>
        <field name="" show="Name server: g.l.google.com" size="4" pos="162" value="0167c038"/>
      </field>
      <field name="" show="l.google.com: type NS, class IN, ns a.l.google.com" size="16" pos="166" value="c038000200010000a97c00040161c038">
        <field name="dns.resp.name" showname="Name: l.google.com" size="2" pos="166" show="l.google.com" value="c038"/>
        <field name="dns.resp.type" showname="Type: NS (Authoritative name server)" size="2" pos="168" show="0x0002" value="0002"/>
        <field name="dns.resp.class" showname="Class: IN (0x0001)" size="2" pos="170" show="0x0001" value="0001"/>
        <field name="dns.resp.ttl" showname="Time to live: 12 hours, 3 minutes, 8 seconds" size="4" pos="172" show="43388" value="0000a97c"/>
        <field name="dns.resp.len" showname="Data length: 4" size="2" pos="176" show="4" value="0004"/>
        <field name="" show="Name server: a.l.google.com" size="4" pos="178" value="0161c038"/>
      </field>
      <field name="" show="l.google.com: type NS, class IN, ns b.l.google.com" size="16" pos="182" value="c038000200010000a97c00040162c038">
        <field name="dns.resp.name" showname="Name: l.google.com" size="2" pos="182" show="l.google.com" value="c038"/>
        <field name="dns.resp.type" showname="Type: NS (Authoritative name server)" size="2" pos="184" show="0x0002" value="0002"/>
        <field name="dns.resp.class" showname="Class: IN (0x0001)" size="2" pos="186" show="0x0001" value="0001"/>
        <field name="dns.resp.ttl" showname="Time to live: 12 hours, 3 minutes, 8 seconds" size="4" pos="188" show="43388" value="0000a97c"/>
        <field name="dns.resp.len" showname="Data length: 4" size="2" pos="192" show="4" value="0004"/>
        <field name="" show="Name server: b.l.google.com" size="4" pos="194" value="0162c038"/>
      </field>
      <field name="" show="l.google.com: type NS, class IN, ns c.l.google.com" size="16" pos="198" value="c038000200010000a97c00040163c038">
        <field name="dns.resp.name" showname="Name: l.google.com" size="2" pos="198" show="l.google.com" value="c038"/>
        <field name="dns.resp.type" showname="Type: NS (Authoritative name server)" size="2" pos="200" show="0x0002" value="0002"/>
        <field name="dns.resp.class" showname="Class: IN (0x0001)" size="2" pos="202" show="0x0001" value="0001"/>
        <field name="dns.resp.ttl" showname="Time to live: 12 hours, 3 minutes, 8 seconds" size="4" pos="204" show="43388" value="0000a97c"/>
        <field name="dns.resp.len" showname="Data length: 4" size="2" pos="208" show="4" value="0004"/>
        <field name="" show="Name server: c.l.google.com" size="4" pos="210" value="0163c038"/>
      </field>
      <field name="" show="l.google.com: type NS, class IN, ns d.l.google.com" size="16" pos="214" value="c038000200010000a97c00040164c038">
        <field name="dns.resp.name" showname="Name: l.google.com" size="2" pos="214" show="l.google.com" value="c038"/>
        <field name="dns.resp.type" showname="Type: NS (Authoritative name server)" size="2" pos="216" show="0x0002" value="0002"/>
        <field name="dns.resp.class" showname="Class: IN (0x0001)" size="2" pos="218" show="0x0001" value="0001"/>
        <field name="dns.resp.ttl" showname="Time to live: 12 hours, 3 minutes, 8 seconds" size="4" pos="220" show="43388" value="0000a97c"/>
        <field name="dns.resp.len" showname="Data length: 4" size="2" pos="224" show="4" value="0004"/>
        <field name="" show="Name server: d.l.google.com" size="4" pos="226" value="0164c038"/>
      </field>
      <field name="" show="l.google.com: type NS, class IN, ns e.l.google.com" size="16" pos="230" value="c038000200010000a97c00040165c038">
        <field name="dns.resp.name" showname="Name: l.google.com" size="2" pos="230" show="l.google.com" value="c038"/>
        <field name="dns.resp.type" showname="Type: NS (Authoritative name server)" size="2" pos="232" show="0x0002" value="0002"/>
        <field name="dns.resp.class" showname="Class: IN (0x0001)" size="2" pos="234" show="0x0001" value="0001"/>
        <field name="dns.resp.ttl" showname="Time to live: 12 hours, 3 minutes, 8 seconds" size="4" pos="236" show="43388" value="0000a97c"/>
        <field name="dns.resp.len" showname="Data length: 4" size="2" pos="240" show="4" value="0004"/>
        <field name="" show="Name server: e.l.google.com" size="4" pos="242" value="0165c038"/>
      </field>
    </field>
  </proto>
</packet>

</pdml>
